target datalayout = "e-m:e-p270:32:32-p271:32:32-p272:64:64-i64:64-f80:128-n8:16:32:64-S128"
target triple = "x86_64-pc-linux-gnu"

%struct.student = type { i64, i32, i32, i32, %struct.student*, %struct.student* }

@.str = private unnamed_addr constant [9 x i8] c"%d %d %d\00", align 1
@.str.1 = private unnamed_addr constant [7 x i8] c"%d %d\0A\00", align 1
@.str.2 = private unnamed_addr constant [3 x i8] c"%d\00", align 1

; Function Attrs: noinline nounwind uwtable
define dso_local %struct.student* @creat(i64 %0) #0 {
  %2 = alloca i64, align 8
  %3 = alloca %struct.student*, align 8
  %4 = alloca %struct.student*, align 8
  %5 = alloca %struct.student*, align 8
  %6 = alloca i32, align 4
  store i64 %0, i64* %2, align 8
  store %struct.student* null, %struct.student** %3, align 8
  %7 = call noalias i8* @malloc(i64 100) #3
  %8 = bitcast i8* %7 to %struct.student*
  store %struct.student* %8, %struct.student** %4, align 8
  %9 = load %struct.student*, %struct.student** %4, align 8
  %10 = getelementptr inbounds %struct.student, %struct.student* %9, i32 0, i32 0
  %11 = load %struct.student*, %struct.student** %4, align 8
  %12 = getelementptr inbounds %struct.student, %struct.student* %11, i32 0, i32 1
  %13 = load %struct.student*, %struct.student** %4, align 8
  %14 = getelementptr inbounds %struct.student, %struct.student* %13, i32 0, i32 2
  %15 = call i32 (i8*, ...) @__isoc99_scanf(i8* getelementptr inbounds ([9 x i8], [9 x i8]* @.str, i64 0, i64 0), i64* %10, i32* %12, i32* %14)
  %16 = load %struct.student*, %struct.student** %4, align 8
  %17 = getelementptr inbounds %struct.student, %struct.student* %16, i32 0, i32 1
  %18 = load i32, i32* %17, align 8
  %19 = load %struct.student*, %struct.student** %4, align 8
  %20 = getelementptr inbounds %struct.student, %struct.student* %19, i32 0, i32 2
  %21 = load i32, i32* %20, align 4
  %22 = add nsw i32 %18, %21
  %23 = load %struct.student*, %struct.student** %4, align 8
  %24 = getelementptr inbounds %struct.student, %struct.student* %23, i32 0, i32 3
  store i32 %22, i32* %24, align 8
  %25 = load %struct.student*, %struct.student** %4, align 8
  %26 = getelementptr inbounds %struct.student, %struct.student* %25, i32 0, i32 4
  store %struct.student* null, %struct.student** %26, align 8
  %27 = load %struct.student*, %struct.student** %4, align 8
  %28 = getelementptr inbounds %struct.student, %struct.student* %27, i32 0, i32 5
  store %struct.student* null, %struct.student** %28, align 8
  %29 = load %struct.student*, %struct.student** %4, align 8
  store %struct.student* %29, %struct.student** %3, align 8
  %30 = load %struct.student*, %struct.student** %4, align 8
  store %struct.student* %30, %struct.student** %5, align 8
  store i32 2, i32* %6, align 4
  br label %31

31:                                               ; preds = %64, %1
  %32 = load i32, i32* %6, align 4
  %33 = sext i32 %32 to i64
  %34 = load i64, i64* %2, align 8
  %35 = icmp sle i64 %33, %34
  br i1 %35, label %36, label %67

36:                                               ; preds = %31
  %37 = call noalias i8* @malloc(i64 100) #3
  %38 = bitcast i8* %37 to %struct.student*
  store %struct.student* %38, %struct.student** %4, align 8
  %39 = load %struct.student*, %struct.student** %4, align 8
  %40 = getelementptr inbounds %struct.student, %struct.student* %39, i32 0, i32 0
  %41 = load %struct.student*, %struct.student** %4, align 8
  %42 = getelementptr inbounds %struct.student, %struct.student* %41, i32 0, i32 1
  %43 = load %struct.student*, %struct.student** %4, align 8
  %44 = getelementptr inbounds %struct.student, %struct.student* %43, i32 0, i32 2
  %45 = call i32 (i8*, ...) @__isoc99_scanf(i8* getelementptr inbounds ([9 x i8], [9 x i8]* @.str, i64 0, i64 0), i64* %40, i32* %42, i32* %44)
  %46 = load %struct.student*, %struct.student** %4, align 8
  %47 = getelementptr inbounds %struct.student, %struct.student* %46, i32 0, i32 1
  %48 = load i32, i32* %47, align 8
  %49 = load %struct.student*, %struct.student** %4, align 8
  %50 = getelementptr inbounds %struct.student, %struct.student* %49, i32 0, i32 2
  %51 = load i32, i32* %50, align 4
  %52 = add nsw i32 %48, %51
  %53 = load %struct.student*, %struct.student** %4, align 8
  %54 = getelementptr inbounds %struct.student, %struct.student* %53, i32 0, i32 3
  store i32 %52, i32* %54, align 8
  %55 = load %struct.student*, %struct.student** %4, align 8
  %56 = getelementptr inbounds %struct.student, %struct.student* %55, i32 0, i32 4
  store %struct.student* null, %struct.student** %56, align 8
  %57 = load %struct.student*, %struct.student** %5, align 8
  %58 = load %struct.student*, %struct.student** %4, align 8
  %59 = getelementptr inbounds %struct.student, %struct.student* %58, i32 0, i32 5
  store %struct.student* %57, %struct.student** %59, align 8
  %60 = load %struct.student*, %struct.student** %4, align 8
  %61 = load %struct.student*, %struct.student** %5, align 8
  %62 = getelementptr inbounds %struct.student, %struct.student* %61, i32 0, i32 4
  store %struct.student* %60, %struct.student** %62, align 8
  %63 = load %struct.student*, %struct.student** %4, align 8
  store %struct.student* %63, %struct.student** %5, align 8
  br label %64

64:                                               ; preds = %36
  %65 = load i32, i32* %6, align 4
  %66 = add nsw i32 %65, 1
  store i32 %66, i32* %6, align 4
  br label %31

67:                                               ; preds = %31
  %68 = load %struct.student*, %struct.student** %3, align 8
  ret %struct.student* %68
}

; Function Attrs: noinline nounwind uwtable
define dso_local %struct.student* @print(%struct.student* %0) #0 {
  %2 = alloca %struct.student*, align 8
  %3 = alloca %struct.student*, align 8
  %4 = alloca %struct.student*, align 8
  store %struct.student* %0, %struct.student** %2, align 8
  %5 = load %struct.student*, %struct.student** %2, align 8
  store %struct.student* %5, %struct.student** %3, align 8
  %6 = load %struct.student*, %struct.student** %2, align 8
  store %struct.student* %6, %struct.student** %4, align 8
  br label %7

7:                                                ; preds = %21, %1
  %8 = load %struct.student*, %struct.student** %4, align 8
  %9 = icmp ne %struct.student* %8, null
  br i1 %9, label %10, label %25

10:                                               ; preds = %7
  %11 = load %struct.student*, %struct.student** %4, align 8
  %12 = getelementptr inbounds %struct.student, %struct.student* %11, i32 0, i32 3
  %13 = load i32, i32* %12, align 8
  %14 = load %struct.student*, %struct.student** %3, align 8
  %15 = getelementptr inbounds %struct.student, %struct.student* %14, i32 0, i32 3
  %16 = load i32, i32* %15, align 8
  %17 = icmp sgt i32 %13, %16
  br i1 %17, label %18, label %20

18:                                               ; preds = %10
  %19 = load %struct.student*, %struct.student** %4, align 8
  store %struct.student* %19, %struct.student** %3, align 8
  br label %20

20:                                               ; preds = %18, %10
  br label %21

21:                                               ; preds = %20
  %22 = load %struct.student*, %struct.student** %4, align 8
  %23 = getelementptr inbounds %struct.student, %struct.student* %22, i32 0, i32 4
  %24 = load %struct.student*, %struct.student** %23, align 8
  store %struct.student* %24, %struct.student** %4, align 8
  br label %7

25:                                               ; preds = %7
  %26 = load %struct.student*, %struct.student** %3, align 8
  %27 = getelementptr inbounds %struct.student, %struct.student* %26, i32 0, i32 0
  %28 = load i64, i64* %27, align 8
  %29 = load %struct.student*, %struct.student** %3, align 8
  %30 = getelementptr inbounds %struct.student, %struct.student* %29, i32 0, i32 3
  %31 = load i32, i32* %30, align 8
  %32 = call i32 (i8*, ...) @printf(i8* getelementptr inbounds ([7 x i8], [7 x i8]* @.str.1, i64 0, i64 0), i64 %28, i32 %31)
  %33 = load %struct.student*, %struct.student** %3, align 8
  %34 = load %struct.student*, %struct.student** %2, align 8
  %35 = icmp eq %struct.student* %33, %34
  br i1 %35, label %36, label %40

36:                                               ; preds = %25
  %37 = load %struct.student*, %struct.student** %3, align 8
  %38 = getelementptr inbounds %struct.student, %struct.student* %37, i32 0, i32 4
  %39 = load %struct.student*, %struct.student** %38, align 8
  store %struct.student* %39, %struct.student** %2, align 8
  br label %48

40:                                               ; preds = %25
  %41 = load %struct.student*, %struct.student** %3, align 8
  %42 = getelementptr inbounds %struct.student, %struct.student* %41, i32 0, i32 4
  %43 = load %struct.student*, %struct.student** %42, align 8
  %44 = load %struct.student*, %struct.student** %3, align 8
  %45 = getelementptr inbounds %struct.student, %struct.student* %44, i32 0, i32 5
  %46 = load %struct.student*, %struct.student** %45, align 8
  %47 = getelementptr inbounds %struct.student, %struct.student* %46, i32 0, i32 4
  store %struct.student* %43, %struct.student** %47, align 8
  br label %48

48:                                               ; preds = %40, %36
  %49 = load %struct.student*, %struct.student** %2, align 8
  ret %struct.student* %49
}

; Function Attrs: noinline nounwind uwtable
define dso_local void @main() #0 {
  %1 = alloca %struct.student*, align 8
  %2 = alloca i64, align 8
  %3 = call i32 (i8*, ...) @__isoc99_scanf(i8* getelementptr inbounds ([3 x i8], [3 x i8]* @.str.2, i64 0, i64 0), i64* %2)
  %4 = load i64, i64* %2, align 8
  %5 = call %struct.student* @creat(i64 %4)
  store %struct.student* %5, %struct.student** %1, align 8
  %6 = load %struct.student*, %struct.student** %1, align 8
  %7 = call %struct.student* @print(%struct.student* %6)
  %8 = load %struct.student*, %struct.student** %1, align 8
  %9 = call %struct.student* @print(%struct.student* %8)
  %10 = load %struct.student*, %struct.student** %1, align 8
  %11 = call %struct.student* @print(%struct.student* %10)
  ret void
}